target datalayout = "e-m:e-p270:32:32-p271:32:32-p272:64:64-i64:64-i128:128-f80:128-n8:16:32:64-S128"
target triple = "x86_64-pc-linux-gnu"

@osinl_incl_subdissector_table = internal global ptr null, align 8
@osinl_excl_subdissector_table = internal global ptr null, align 8

; Function Attrs: null_pointer_is_valid sspstrong uwtable
define internal i32 @dissect_osi_juniper(ptr noundef %0, ptr noundef %1, ptr noundef %2, ptr noundef %3) #0 {
  %5 = alloca i32, align 4
  %6 = alloca ptr, align 8
  %7 = alloca ptr, align 8
  %8 = alloca ptr, align 8
  %9 = alloca ptr, align 8
  %10 = alloca i8, align 1
  %11 = alloca ptr, align 8
  %12 = alloca i32, align 4
  store ptr %0, ptr %6, align 8
  store ptr %1, ptr %7, align 8
  store ptr %2, ptr %8, align 8
  store ptr %3, ptr %9, align 8
  call void @llvm.lifetime.start.p0(i64 1, ptr %10) #4
  call void @llvm.lifetime.start.p0(i64 8, ptr %11) #4
  %13 = load ptr, ptr %6, align 8
  %14 = call zeroext i8 @tvb_get_uint8(ptr noundef %13, i32 noundef 0)
  store i8 %14, ptr %10, align 1
  %15 = load ptr, ptr @osinl_incl_subdissector_table, align 8
  %16 = load i8, ptr %10, align 1
  %17 = zext i8 %16 to i32
  %18 = load ptr, ptr %6, align 8
  %19 = load ptr, ptr %7, align 8
  %20 = load ptr, ptr %8, align 8
  %21 = call i32 @dissector_try_uint(ptr noundef %15, i32 noundef %17, ptr noundef %18, ptr noundef %19, ptr noundef %20)
  %22 = icmp ne i32 %21, 0
  br i1 %22, label %23, label %26

23:                                               ; preds = %4
  %24 = load ptr, ptr %6, align 8
  %25 = call i32 @tvb_captured_length(ptr noundef %24)
  store i32 %25, ptr %5, align 4
  store i32 1, ptr %12, align 4
  br label %38

26:                                               ; preds = %4
  %27 = load ptr, ptr %6, align 8
  %28 = call ptr @tvb_new_subset_remaining(ptr noundef %27, i32 noundef 1)
  store ptr %28, ptr %11, align 8
  %29 = load ptr, ptr @osinl_excl_subdissector_table, align 8
  %30 = load i8, ptr %10, align 1
  %31 = zext i8 %30 to i32
  %32 = load ptr, ptr %11, align 8
  %33 = load ptr, ptr %7, align 8
  %34 = load ptr, ptr %8, align 8
  %35 = call i32 @dissector_try_uint(ptr noundef %29, i32 noundef %31, ptr noundef %32, ptr noundef %33, ptr noundef %34)
  %36 = load ptr, ptr %6, align 8
  %37 = call i32 @tvb_captured_length(ptr noundef %36)
  store i32 %37, ptr %5, align 4
  store i32 1, ptr %12, align 4
  br label %38

38:                                               ; preds = %26, %23
  call void @llvm.lifetime.end.p0(i64 8, ptr %11) #4
  call void @llvm.lifetime.end.p0(i64 1, ptr %10) #4
  %39 = load i32, ptr %5, align 4
  ret i32 %39
}