; Function Attrs: null_pointer_is_valid sspstrong uwtable
define internal i32 @dissect_osi_juniper(ptr noundef %0, ptr noundef %1, ptr noundef %2, ptr readnone captures(none) %3) #0 {
  %5 = tail call zeroext i8 @tvb_get_uint8(ptr noundef %0, i32 noundef 0)
  %6 = load ptr, ptr @osinl_incl_subdissector_table, align 8
  %7 = zext i8 %5 to i32
  %8 = tail call i32 @dissector_try_uint(ptr noundef %6, i32 noundef %7, ptr noundef %0, ptr noundef %1, ptr noundef %2)
  %.not = icmp eq i32 %8, 0
  br i1 %.not, label %9, label %13

9:                                                ; preds = %4
  %10 = tail call ptr @tvb_new_subset_remaining(ptr noundef %0, i32 noundef 1)
  %11 = load ptr, ptr @osinl_excl_subdissector_table, align 8
  %12 = tail call i32 @dissector_try_uint(ptr noundef %11, i32 noundef %7, ptr noundef %10, ptr noundef %1, ptr noundef %2)
  br label %13

13:                                               ; preds = %4, %9
  %14 = tail call i32 @tvb_captured_length(ptr noundef %0)
  ret i32 %14
}